; Function Attrs: nounwind uwtable
define dso_local zeroext i1 @mdexists(ptr noundef captures(none) %0, i32 noundef %1) local_unnamed_addr #0 {
  %3 = load i8, ptr @InRecovery, align 1, !range !4, !noundef !5
  %4 = trunc nuw i8 %3 to i1
  br i1 %4, label %mdclose.exit, label %5

5:                                                ; preds = %2
  %6 = getelementptr inbounds nuw i8, ptr %0, i64 40
  %7 = sext i32 %1 to i64
  %8 = getelementptr inbounds [4 x i32], ptr %6, i64 0, i64 %7
  %9 = load i32, ptr %8, align 4
  %10 = icmp sgt i32 %9, 0
  br i1 %10, label %.lr.ph.i, label %mdclose.exit

.lr.ph.i:                                         ; preds = %5
  %11 = getelementptr inbounds nuw i8, ptr %0, i64 56
  %12 = getelementptr inbounds [4 x ptr], ptr %11, i64 0, i64 %7
  %13 = zext nneg i32 %9 to i64
  %14 = load ptr, ptr %12, align 8
  %indvars.iv.next.i3 = add nsw i64 %13, -1
  %15 = getelementptr inbounds nuw %struct._MdfdVec, ptr %14, i64 %indvars.iv.next.i3
  %16 = load i32, ptr %15, align 4
  tail call void @FileClose(i32 noundef %16) #15
  %17 = icmp eq i64 %indvars.iv.next.i3, 0
  %18 = load i32, ptr %8, align 4
  br i1 %17, label %._crit_edge, label %.lr.ph

._crit_edge:                                      ; preds = %_fdvec_resize.exit.i, %.lr.ph.i
  %.lcssa = phi i32 [ %18, %.lr.ph.i ], [ %40, %_fdvec_resize.exit.i ]
  %19 = icmp sgt i32 %.lcssa, 0
  br i1 %19, label %20, label %.loopexit.loopexit.i

20:                                               ; preds = %._crit_edge
  %21 = load ptr, ptr %12, align 8
  tail call void @pfree(ptr noundef %21) #15
  store ptr null, ptr %12, align 8
  br label %.loopexit.loopexit.i

.lr.ph:                                           ; preds = %.lr.ph.i, %_fdvec_resize.exit.i
  %22 = phi i32 [ %40, %_fdvec_resize.exit.i ], [ %18, %.lr.ph.i ]
  %indvars.iv.next.i4 = phi i64 [ %indvars.iv.next.i, %_fdvec_resize.exit.i ], [ %indvars.iv.next.i3, %.lr.ph.i ]
  %23 = icmp eq i32 %22, 0
  br i1 %23, label %24, label %28

24:                                               ; preds = %.lr.ph
  %25 = load ptr, ptr @MdCxt, align 8
  %26 = shl nuw nsw i64 %indvars.iv.next.i4, 3
  %27 = tail call ptr @MemoryContextAlloc(ptr noundef %25, i64 noundef %26) #15
  br label %_fdvec_resize.exit.sink.split.i

28:                                               ; preds = %.lr.ph
  %29 = sext i32 %22 to i64
  %30 = icmp sgt i64 %indvars.iv.next.i4, %29
  br i1 %30, label %31, label %_fdvec_resize.exit.i

31:                                               ; preds = %28
  %32 = load ptr, ptr %12, align 8
  %33 = shl nuw nsw i64 %indvars.iv.next.i4, 3
  %34 = tail call ptr @repalloc(ptr noundef %32, i64 noundef %33) #15
  br label %_fdvec_resize.exit.sink.split.i

_fdvec_resize.exit.sink.split.i:                  ; preds = %31, %24
  %.sink.i = phi ptr [ %27, %24 ], [ %34, %31 ]
  store ptr %.sink.i, ptr %12, align 8
  br label %_fdvec_resize.exit.i

_fdvec_resize.exit.i:                             ; preds = %_fdvec_resize.exit.sink.split.i, %28
  %35 = trunc nuw nsw i64 %indvars.iv.next.i4 to i32
  store i32 %35, ptr %8, align 4
  %36 = load ptr, ptr %12, align 8
  %indvars.iv.next.i = add nsw i64 %indvars.iv.next.i4, -1
  %37 = getelementptr inbounds nuw %struct._MdfdVec, ptr %36, i64 %indvars.iv.next.i
  %38 = load i32, ptr %37, align 4
  tail call void @FileClose(i32 noundef %38) #15
  %39 = icmp eq i64 %indvars.iv.next.i, 0
  %40 = load i32, ptr %8, align 4
  br i1 %39, label %._crit_edge, label %.lr.ph, !llvm.loop !6

.loopexit.loopexit.i:                             ; preds = %20, %._crit_edge
  store i32 0, ptr %8, align 4
  br label %mdclose.exit

mdclose.exit:                                     ; preds = %.loopexit.loopexit.i, %5, %2
  %41 = tail call fastcc ptr @mdopenfork(ptr noundef %0, i32 noundef %1, i32 noundef 2)
  %42 = icmp ne ptr %41, null
  ret i1 %42
}